target datalayout = "e-m:e-p270:32:32-p271:32:32-p272:64:64-i64:64-i128:128-f80:128-n8:16:32:64-S128"
target triple = "x86_64-pc-linux-gnu"

%"class.llvm::StringMapImpl" = type { ptr, i32, i32, i32, i32 }
%"class.std::vector.162" = type { %"struct.std::_Vector_base.163" }
%"struct.std::_Vector_base.163" = type { %"struct.std::_Vector_base<llvm::Constant *, std::allocator<llvm::Constant *>>::_Vector_impl" }
%"struct.std::_Vector_base<llvm::Constant *, std::allocator<llvm::Constant *>>::_Vector_impl" = type { %"struct.std::_Vector_base<llvm::Constant *, std::allocator<llvm::Constant *>>::_Vector_impl_data" }
%"struct.std::_Vector_base<llvm::Constant *, std::allocator<llvm::Constant *>>::_Vector_impl_data" = type { ptr, ptr, ptr }
%"class.llvm::StringMap.173" = type { %"class.llvm::StringMapImpl" }
%"class.clang::QualType" = type { %"class.llvm::PointerIntPair.257" }
%"class.llvm::PointerIntPair.257" = type { %"struct.llvm::detail::PunnedPointer.258" }
%"struct.llvm::detail::PunnedPointer.258" = type { [8 x i8] }
%"class.llvm::FunctionCallee" = type { ptr, ptr }
%"class.(anonymous namespace)::CGObjCGNU" = type { %"class.clang::CodeGen::CGObjCRuntime", ptr, ptr, ptr, ptr, ptr, ptr, ptr, ptr, ptr, ptr, ptr, ptr, ptr, %"class.clang::CanQual", ptr, ptr, ptr, ptr, ptr, ptr, ptr, ptr, ptr, ptr, ptr, i32, i8, i8, [2 x ptr], ptr, ptr, ptr, ptr, %"class.std::vector.162", %"class.std::vector.162", %"class.std::vector.162", %"class.llvm::StringMap.173", %"class.llvm::StringMap.173", %"class.llvm::DenseMap.325", %"class.clang::Selector", %"class.clang::Selector", %"class.clang::Selector", %"class.(anonymous namespace)::LazyRuntimeFunction", %"class.(anonymous namespace)::LazyRuntimeFunction", %"class.(anonymous namespace)::LazyRuntimeFunction", %"class.(anonymous namespace)::LazyRuntimeFunction", %"class.(anonymous namespace)::LazyRuntimeFunction", %"class.(anonymous namespace)::LazyRuntimeFunction", %"class.std::vector.330", %"class.(anonymous namespace)::LazyRuntimeFunction", %"class.(anonymous namespace)::LazyRuntimeFunction", %"class.(anonymous namespace)::LazyRuntimeFunction", %"class.(anonymous namespace)::LazyRuntimeFunction", %"class.(anonymous namespace)::LazyRuntimeFunction", %"class.(anonymous namespace)::LazyRuntimeFunction", %"class.(anonymous namespace)::LazyRuntimeFunction", %"class.(anonymous namespace)::LazyRuntimeFunction", %"class.(anonymous namespace)::LazyRuntimeFunction", %"class.(anonymous namespace)::LazyRuntimeFunction", %"class.(anonymous namespace)::LazyRuntimeFunction", i32, i32, i32, [4 x i8], %"class.llvm::DenseMap.335" }
%"class.clang::CodeGen::CGObjCRuntime" = type { ptr, ptr }
%"class.clang::CanQual" = type { %"class.clang::QualType" }
%"class.llvm::DenseMap.325" = type <{ ptr, i32, i32, i32, [4 x i8] }>
%"class.clang::Selector" = type { %"class.llvm::PointerIntPair.328" }
%"class.llvm::PointerIntPair.328" = type { %"struct.llvm::detail::PunnedPointer.329" }
%"struct.llvm::detail::PunnedPointer.329" = type { [8 x i8] }
%"class.std::vector.330" = type { %"struct.std::_Vector_base.331" }
%"struct.std::_Vector_base.331" = type { %"struct.std::_Vector_base<std::pair<std::__cxx11::basic_string<char>, std::__cxx11::basic_string<char>>, std::allocator<std::pair<std::__cxx11::basic_string<char>, std::__cxx11::basic_string<char>>>>::_Vector_impl" }
%"struct.std::_Vector_base<std::pair<std::__cxx11::basic_string<char>, std::__cxx11::basic_string<char>>, std::allocator<std::pair<std::__cxx11::basic_string<char>, std::__cxx11::basic_string<char>>>>::_Vector_impl" = type { %"struct.std::_Vector_base<std::pair<std::__cxx11::basic_string<char>, std::__cxx11::basic_string<char>>, std::allocator<std::pair<std::__cxx11::basic_string<char>, std::__cxx11::basic_string<char>>>>::_Vector_impl_data" }
%"struct.std::_Vector_base<std::pair<std::__cxx11::basic_string<char>, std::__cxx11::basic_string<char>>, std::allocator<std::pair<std::__cxx11::basic_string<char>, std::__cxx11::basic_string<char>>>>::_Vector_impl_data" = type { ptr, ptr, ptr }
%"class.llvm::DenseMap.335" = type <{ ptr, i32, i32, i32, [4 x i8] }>
%"class.(anonymous namespace)::LazyRuntimeFunction" = type { ptr, ptr, ptr, %"class.llvm::FunctionCallee" }
%"class.llvm::StringRef" = type { ptr, i64 }
%"class.llvm::AttributeList" = type { ptr }

; Function Attrs: mustprogress nounwind uwtable
define linkonce_odr hidden noundef i64 @_ZNSt11char_traitsIcE6lengthEPKc(ptr noundef %0) #0 comdat align 2 {
  %2 = alloca ptr, align 8
  store ptr %0, ptr %2, align 8
  %3 = load ptr, ptr %2, align 8
  %4 = call i64 @strlen(ptr noundef %3) #13
  ret i64 %4
}

; Function Attrs: mustprogress nounwind uwtable
define linkonce_odr hidden void @_ZN4llvm13AttributeListC2Ev(ptr noundef nonnull align 8 dereferenceable(8) %0) unnamed_addr #0 comdat align 2 {
  %2 = alloca ptr, align 8
  store ptr %0, ptr %2, align 8
  %3 = load ptr, ptr %2, align 8
  %4 = getelementptr inbounds nuw %"class.llvm::AttributeList", ptr %3, i32 0, i32 0
  store ptr null, ptr %4, align 8
  ret void
}

; Function Attrs: mustprogress nounwind uwtable
define linkonce_odr hidden void @_ZN4llvm9StringRefC2EPKc(ptr noundef nonnull align 8 dereferenceable(16) %0, ptr noundef %1) unnamed_addr #0 comdat align 2 {
  %3 = alloca ptr, align 8
  %4 = alloca ptr, align 8
  store ptr %0, ptr %3, align 8
  store ptr %1, ptr %4, align 8
  %5 = load ptr, ptr %3, align 8
  %6 = getelementptr inbounds nuw %"class.llvm::StringRef", ptr %5, i32 0, i32 0
  %7 = load ptr, ptr %4, align 8
  store ptr %7, ptr %6, align 8
  %8 = getelementptr inbounds nuw %"class.llvm::StringRef", ptr %5, i32 0, i32 1
  %9 = load ptr, ptr %4, align 8
  %10 = icmp ne ptr %9, null
  br i1 %10, label %11, label %14

11:                                               ; preds = %2
  %12 = load ptr, ptr %4, align 8
  %13 = call noundef i64 @_ZNSt11char_traitsIcE6lengthEPKc(ptr noundef %12)
  br label %15

14:                                               ; preds = %2
  br label %15

15:                                               ; preds = %14, %11
  %16 = phi i64 [ %13, %11 ], [ 0, %14 ]
  store i64 %16, ptr %8, align 8
  ret void
}

; Function Attrs: mustprogress nounwind uwtable
define linkonce_odr hidden void @_ZN4llvm14FunctionCalleeC2EDn(ptr noundef nonnull align 8 dereferenceable(16) %0, ptr %1) unnamed_addr #0 comdat align 2 {
  %3 = alloca ptr, align 8
  %4 = alloca ptr, align 8
  store ptr %0, ptr %3, align 8
  store ptr %1, ptr %4, align 8
  %5 = load ptr, ptr %3, align 8
  %6 = getelementptr inbounds nuw %"class.llvm::FunctionCallee", ptr %5, i32 0, i32 0
  store ptr null, ptr %6, align 8
  %7 = getelementptr inbounds nuw %"class.llvm::FunctionCallee", ptr %5, i32 0, i32 1
  store ptr null, ptr %7, align 8
  ret void
}

; Function Attrs: mustprogress nounwind uwtable
define linkonce_odr hidden noundef zeroext i1 @_ZN4llvm14FunctionCalleecvbEv(ptr noundef nonnull align 8 dereferenceable(16) %0) #0 comdat align 2 {
  %2 = alloca ptr, align 8
  store ptr %0, ptr %2, align 8
  %3 = load ptr, ptr %2, align 8
  %4 = getelementptr inbounds nuw %"class.llvm::FunctionCallee", ptr %3, i32 0, i32 1
  %5 = load ptr, ptr %4, align 8
  %6 = icmp ne ptr %5, null
  ret i1 %6
}

; Function Attrs: mustprogress nounwind uwtable
define internal { ptr, ptr } @_ZN12_GLOBAL__N_119LazyRuntimeFunctioncvN4llvm14FunctionCalleeEEv(ptr noundef nonnull align 8 dereferenceable(40) %0) #0 align 2 {
  %2 = alloca %"class.llvm::FunctionCallee", align 8
  %3 = alloca ptr, align 8
  %4 = alloca %"class.llvm::FunctionCallee", align 8
  %5 = alloca %"class.llvm::StringRef", align 8
  %6 = alloca %"class.llvm::AttributeList", align 8
  store ptr %0, ptr %3, align 8
  %7 = load ptr, ptr %3, align 8
  %8 = getelementptr inbounds nuw %"class.(anonymous namespace)::LazyRuntimeFunction", ptr %7, i32 0, i32 3
  %9 = call noundef zeroext i1 @_ZN4llvm14FunctionCalleecvbEv(ptr noundef nonnull align 8 dereferenceable(16) %8)
  br i1 %9, label %34, label %10

10:                                               ; preds = %1
  %11 = getelementptr inbounds nuw %"class.(anonymous namespace)::LazyRuntimeFunction", ptr %7, i32 0, i32 2
  %12 = load ptr, ptr %11, align 8
  %13 = icmp ne ptr %12, null
  br i1 %13, label %15, label %14

14:                                               ; preds = %10
  call void @_ZN4llvm14FunctionCalleeC2EDn(ptr noundef nonnull align 8 dereferenceable(16) %2, ptr null)
  br label %36

15:                                               ; preds = %10
  %16 = getelementptr inbounds nuw %"class.(anonymous namespace)::LazyRuntimeFunction", ptr %7, i32 0, i32 0
  %17 = load ptr, ptr %16, align 8
  %18 = getelementptr inbounds nuw %"class.(anonymous namespace)::LazyRuntimeFunction", ptr %7, i32 0, i32 1
  %19 = load ptr, ptr %18, align 8
  %20 = getelementptr inbounds nuw %"class.(anonymous namespace)::LazyRuntimeFunction", ptr %7, i32 0, i32 2
  %21 = load ptr, ptr %20, align 8
  call void @_ZN4llvm9StringRefC2EPKc(ptr noundef nonnull align 8 dereferenceable(16) %5, ptr noundef %21)
  call void @llvm.memset.p0.i64(ptr align 8 %6, i8 0, i64 8, i1 false)
  call void @_ZN4llvm13AttributeListC2Ev(ptr noundef nonnull align 8 dereferenceable(8) %6) #13
  %22 = getelementptr inbounds nuw { ptr, i64 }, ptr %5, i32 0, i32 0
  %23 = load ptr, ptr %22, align 8
  %24 = getelementptr inbounds nuw { ptr, i64 }, ptr %5, i32 0, i32 1
  %25 = load i64, ptr %24, align 8
  %26 = getelementptr inbounds nuw %"class.llvm::AttributeList", ptr %6, i32 0, i32 0
  %27 = load ptr, ptr %26, align 8
  %28 = call { ptr, ptr } @_ZN5clang7CodeGen13CodeGenModule21CreateRuntimeFunctionEPN4llvm12FunctionTypeENS2_9StringRefENS2_13AttributeListEbb(ptr noundef nonnull align 8 dereferenceable(3600) %17, ptr noundef %19, ptr %23, i64 %25, ptr %27, i1 noundef zeroext false, i1 noundef zeroext false)
  %29 = getelementptr inbounds nuw { ptr, ptr }, ptr %4, i32 0, i32 0
  %30 = extractvalue { ptr, ptr } %28, 0
  store ptr %30, ptr %29, align 8
  %31 = getelementptr inbounds nuw { ptr, ptr }, ptr %4, i32 0, i32 1
  %32 = extractvalue { ptr, ptr } %28, 1
  store ptr %32, ptr %31, align 8
  %33 = getelementptr inbounds nuw %"class.(anonymous namespace)::LazyRuntimeFunction", ptr %7, i32 0, i32 3
  call void @llvm.memcpy.p0.p0.i64(ptr align 8 %33, ptr align 8 %4, i64 16, i1 false)
  br label %34

34:                                               ; preds = %15, %1
  %35 = getelementptr inbounds nuw %"class.(anonymous namespace)::LazyRuntimeFunction", ptr %7, i32 0, i32 3
  call void @llvm.memcpy.p0.p0.i64(ptr align 8 %2, ptr align 8 %35, i64 16, i1 false)
  br label %36

36:                                               ; preds = %34, %14
  %37 = load { ptr, ptr }, ptr %2, align 8
  ret { ptr, ptr } %37
}

; Function Attrs: mustprogress nounwind uwtable
define internal void @_ZN12_GLOBAL__N_19CGObjCGNU20EmitSynchronizedStmtERN5clang7CodeGen15CodeGenFunctionERKNS1_22ObjCAtSynchronizedStmtE(ptr noundef nonnull align 8 dereferenceable(1184) %0, ptr noundef nonnull align 8 dereferenceable(6488) %1, ptr noundef nonnull align 8 dereferenceable(32) %2) unnamed_addr #0 align 2 {
  %4 = alloca ptr, align 8
  %5 = alloca ptr, align 8
  %6 = alloca ptr, align 8
  %7 = alloca %"class.llvm::FunctionCallee", align 8
  %8 = alloca %"class.llvm::FunctionCallee", align 8
  store ptr %0, ptr %4, align 8
  store ptr %1, ptr %5, align 8
  store ptr %2, ptr %6, align 8
  %9 = load ptr, ptr %4, align 8
  %10 = load ptr, ptr %5, align 8
  %11 = load ptr, ptr %6, align 8
  %12 = getelementptr inbounds nuw %"class.(anonymous namespace)::CGObjCGNU", ptr %9, i32 0, i32 54
  %13 = call { ptr, ptr } @_ZN12_GLOBAL__N_119LazyRuntimeFunctioncvN4llvm14FunctionCalleeEEv(ptr noundef nonnull align 8 dereferenceable(40) %12)
  %14 = getelementptr inbounds nuw { ptr, ptr }, ptr %7, i32 0, i32 0
  %15 = extractvalue { ptr, ptr } %13, 0
  store ptr %15, ptr %14, align 8
  %16 = getelementptr inbounds nuw { ptr, ptr }, ptr %7, i32 0, i32 1
  %17 = extractvalue { ptr, ptr } %13, 1
  store ptr %17, ptr %16, align 8
  %18 = getelementptr inbounds nuw %"class.(anonymous namespace)::CGObjCGNU", ptr %9, i32 0, i32 55
  %19 = call { ptr, ptr } @_ZN12_GLOBAL__N_119LazyRuntimeFunctioncvN4llvm14FunctionCalleeEEv(ptr noundef nonnull align 8 dereferenceable(40) %18)
  %20 = getelementptr inbounds nuw { ptr, ptr }, ptr %8, i32 0, i32 0
  %21 = extractvalue { ptr, ptr } %19, 0
  store ptr %21, ptr %20, align 8
  %22 = getelementptr inbounds nuw { ptr, ptr }, ptr %8, i32 0, i32 1
  %23 = extractvalue { ptr, ptr } %19, 1
  store ptr %23, ptr %22, align 8
  %24 = getelementptr inbounds nuw { ptr, ptr }, ptr %7, i32 0, i32 0
  %25 = load ptr, ptr %24, align 8
  %26 = getelementptr inbounds nuw { ptr, ptr }, ptr %7, i32 0, i32 1
  %27 = load ptr, ptr %26, align 8
  call void @_ZN5clang7CodeGen13CGObjCRuntime22EmitAtSynchronizedStmtERNS0_15CodeGenFunctionERKNS_22ObjCAtSynchronizedStmtEN4llvm14FunctionCalleeES8_(ptr noundef nonnull align 8 dereferenceable(16) %9, ptr noundef nonnull align 8 dereferenceable(6488) %10, ptr noundef nonnull align 8 dereferenceable(32) %11, ptr %25, ptr %27, ptr noundef byval(%"class.llvm::FunctionCallee") align 8 %8)
  ret void
}