; Function Attrs: mustprogress nounwind uwtable
define internal void @_ZN12_GLOBAL__N_19CGObjCGNU20EmitSynchronizedStmtERN5clang7CodeGen15CodeGenFunctionERKNS1_22ObjCAtSynchronizedStmtE(ptr noundef nonnull align 8 dereferenceable(1184) %0, ptr noundef nonnull align 8 dereferenceable(6488) %1, ptr noundef nonnull align 8 dereferenceable(32) %2) unnamed_addr #0 align 2 {
  %4 = alloca %"class.llvm::FunctionCallee", align 8
  %5 = getelementptr inbounds nuw i8, ptr %0, i64 864
  %6 = getelementptr inbounds nuw i8, ptr %0, i64 888
  %7 = getelementptr inbounds nuw i8, ptr %0, i64 896
  %8 = load ptr, ptr %7, align 8
  %.not3.i = icmp eq ptr %8, null
  br i1 %.not3.i, label %9, label %._crit_edge.i

._crit_edge.i:                                    ; preds = %3
  %.sroa.02.0.copyload.pre.i = load ptr, ptr %6, align 8
  br label %_ZN12_GLOBAL__N_119LazyRuntimeFunctioncvN4llvm14FunctionCalleeEEv.exit

9:                                                ; preds = %3
  %10 = getelementptr inbounds nuw i8, ptr %0, i64 880
  %11 = load ptr, ptr %10, align 8
  %.not.i = icmp eq ptr %11, null
  br i1 %.not.i, label %_ZN12_GLOBAL__N_119LazyRuntimeFunctioncvN4llvm14FunctionCalleeEEv.exit, label %_ZN4llvm9StringRefC2EPKc.exit.i

_ZN4llvm9StringRefC2EPKc.exit.i:                  ; preds = %9
  %12 = load ptr, ptr %5, align 8
  %13 = getelementptr inbounds nuw i8, ptr %0, i64 872
  %14 = load ptr, ptr %13, align 8
  %15 = tail call noundef i64 @strlen(ptr noundef nonnull dereferenceable(1) %11) #23
  %16 = tail call { ptr, ptr } @_ZN5clang7CodeGen13CodeGenModule21CreateRuntimeFunctionEPN4llvm12FunctionTypeENS2_9StringRefENS2_13AttributeListEbb(ptr noundef nonnull align 8 dereferenceable(3600) %12, ptr noundef %14, ptr nonnull %11, i64 %15, ptr null, i1 noundef zeroext false, i1 noundef zeroext false) #23
  %17 = extractvalue { ptr, ptr } %16, 0
  %18 = extractvalue { ptr, ptr } %16, 1
  store ptr %17, ptr %6, align 8
  store ptr %18, ptr %7, align 8
  br label %_ZN12_GLOBAL__N_119LazyRuntimeFunctioncvN4llvm14FunctionCalleeEEv.exit

_ZN12_GLOBAL__N_119LazyRuntimeFunctioncvN4llvm14FunctionCalleeEEv.exit: ; preds = %._crit_edge.i, %9, %_ZN4llvm9StringRefC2EPKc.exit.i
  %.sroa.3.0.i = phi ptr [ null, %9 ], [ %8, %._crit_edge.i ], [ %18, %_ZN4llvm9StringRefC2EPKc.exit.i ]
  %.sroa.02.0.i = phi ptr [ null, %9 ], [ %.sroa.02.0.copyload.pre.i, %._crit_edge.i ], [ %17, %_ZN4llvm9StringRefC2EPKc.exit.i ]
  %19 = getelementptr inbounds nuw i8, ptr %0, i64 904
  %20 = getelementptr inbounds nuw i8, ptr %0, i64 928
  %21 = getelementptr inbounds nuw i8, ptr %0, i64 936
  %22 = load ptr, ptr %21, align 8
  %.not3.i3 = icmp eq ptr %22, null
  br i1 %.not3.i3, label %23, label %._crit_edge.i4

._crit_edge.i4:                                   ; preds = %_ZN12_GLOBAL__N_119LazyRuntimeFunctioncvN4llvm14FunctionCalleeEEv.exit
  %.sroa.02.0.copyload.pre.i5 = load ptr, ptr %20, align 8
  br label %_ZN12_GLOBAL__N_119LazyRuntimeFunctioncvN4llvm14FunctionCalleeEEv.exit12

23:                                               ; preds = %_ZN12_GLOBAL__N_119LazyRuntimeFunctioncvN4llvm14FunctionCalleeEEv.exit
  %24 = getelementptr inbounds nuw i8, ptr %0, i64 920
  %25 = load ptr, ptr %24, align 8
  %.not.i10 = icmp eq ptr %25, null
  br i1 %.not.i10, label %_ZN12_GLOBAL__N_119LazyRuntimeFunctioncvN4llvm14FunctionCalleeEEv.exit12, label %_ZN4llvm9StringRefC2EPKc.exit.i11

_ZN4llvm9StringRefC2EPKc.exit.i11:                ; preds = %23
  %26 = load ptr, ptr %19, align 8
  %27 = getelementptr inbounds nuw i8, ptr %0, i64 912
  %28 = load ptr, ptr %27, align 8
  %29 = tail call noundef i64 @strlen(ptr noundef nonnull dereferenceable(1) %25) #23
  %30 = tail call { ptr, ptr } @_ZN5clang7CodeGen13CodeGenModule21CreateRuntimeFunctionEPN4llvm12FunctionTypeENS2_9StringRefENS2_13AttributeListEbb(ptr noundef nonnull align 8 dereferenceable(3600) %26, ptr noundef %28, ptr nonnull %25, i64 %29, ptr null, i1 noundef zeroext false, i1 noundef zeroext false) #23
  %31 = extractvalue { ptr, ptr } %30, 0
  %32 = extractvalue { ptr, ptr } %30, 1
  store ptr %31, ptr %20, align 8
  store ptr %32, ptr %21, align 8
  br label %_ZN12_GLOBAL__N_119LazyRuntimeFunctioncvN4llvm14FunctionCalleeEEv.exit12

_ZN12_GLOBAL__N_119LazyRuntimeFunctioncvN4llvm14FunctionCalleeEEv.exit12: ; preds = %._crit_edge.i4, %23, %_ZN4llvm9StringRefC2EPKc.exit.i11
  %.sroa.3.0.i6 = phi ptr [ null, %23 ], [ %22, %._crit_edge.i4 ], [ %32, %_ZN4llvm9StringRefC2EPKc.exit.i11 ]
  %.sroa.02.0.i7 = phi ptr [ null, %23 ], [ %.sroa.02.0.copyload.pre.i5, %._crit_edge.i4 ], [ %31, %_ZN4llvm9StringRefC2EPKc.exit.i11 ]
  store ptr %.sroa.02.0.i7, ptr %4, align 8
  %33 = getelementptr inbounds nuw i8, ptr %4, i64 8
  store ptr %.sroa.3.0.i6, ptr %33, align 8
  tail call void @_ZN5clang7CodeGen13CGObjCRuntime22EmitAtSynchronizedStmtERNS0_15CodeGenFunctionERKNS_22ObjCAtSynchronizedStmtEN4llvm14FunctionCalleeES8_(ptr noundef nonnull align 8 dereferenceable(16) %0, ptr noundef nonnull align 8 dereferenceable(6488) %1, ptr noundef nonnull align 8 dereferenceable(32) %2, ptr %.sroa.02.0.i, ptr %.sroa.3.0.i, ptr noundef nonnull byval(%"class.llvm::FunctionCallee") align 8 %4) #23
  ret void
}